target datalayout = "e-m:e-p270:32:32-p271:32:32-p272:64:64-i64:64-i128:128-f80:128-n8:16:32:64-S128"
target triple = "x86_64-pc-linux-gnu"

%struct.GeoHashRange = type { double, double }
%struct.GeoHashBits = type { i64, i8 }
%struct.GeoHashArea = type { %struct.GeoHashBits, %struct.GeoHashRange, %struct.GeoHashRange }

@deinterleave64.B = internal constant [6 x i64] [i64 6148914691236517205, i64 3689348814741910323, i64 1085102592571150095, i64 71777214294589695, i64 281470681808895, i64 4294967295], align 16
@deinterleave64.S = internal constant [6 x i32] [i32 0, i32 1, i32 2, i32 4, i32 8, i32 16], align 16

; Function Attrs: inlinehint nounwind uwtable
define internal i64 @deinterleave64(i64 noundef %0) #2 {
  %2 = alloca i64, align 8
  %3 = alloca i64, align 8
  %4 = alloca i64, align 8
  store i64 %0, ptr %2, align 8, !tbaa !21
  call void @llvm.lifetime.start.p0(i64 8, ptr %3) #6
  %5 = load i64, ptr %2, align 8, !tbaa !21
  store i64 %5, ptr %3, align 8, !tbaa !21
  call void @llvm.lifetime.start.p0(i64 8, ptr %4) #6
  %6 = load i64, ptr %2, align 8, !tbaa !21
  %7 = lshr i64 %6, 1
  store i64 %7, ptr %4, align 8, !tbaa !21
  %8 = load i64, ptr %3, align 8, !tbaa !21
  %9 = load i64, ptr %3, align 8, !tbaa !21
  %10 = load i32, ptr @deinterleave64.S, align 16, !tbaa !19
  %11 = zext i32 %10 to i64
  %12 = lshr i64 %9, %11
  %13 = or i64 %8, %12
  %14 = load i64, ptr @deinterleave64.B, align 16, !tbaa !21
  %15 = and i64 %13, %14
  store i64 %15, ptr %3, align 8, !tbaa !21
  %16 = load i64, ptr %4, align 8, !tbaa !21
  %17 = load i64, ptr %4, align 8, !tbaa !21
  %18 = load i32, ptr @deinterleave64.S, align 16, !tbaa !19
  %19 = zext i32 %18 to i64
  %20 = lshr i64 %17, %19
  %21 = or i64 %16, %20
  %22 = load i64, ptr @deinterleave64.B, align 16, !tbaa !21
  %23 = and i64 %21, %22
  store i64 %23, ptr %4, align 8, !tbaa !21
  %24 = load i64, ptr %3, align 8, !tbaa !21
  %25 = load i64, ptr %3, align 8, !tbaa !21
  %26 = load i32, ptr getelementptr inbounds ([6 x i32], ptr @deinterleave64.S, i64 0, i64 1), align 4, !tbaa !19
  %27 = zext i32 %26 to i64
  %28 = lshr i64 %25, %27
  %29 = or i64 %24, %28
  %30 = load i64, ptr getelementptr inbounds ([6 x i64], ptr @deinterleave64.B, i64 0, i64 1), align 8, !tbaa !21
  %31 = and i64 %29, %30
  store i64 %31, ptr %3, align 8, !tbaa !21
  %32 = load i64, ptr %4, align 8, !tbaa !21
  %33 = load i64, ptr %4, align 8, !tbaa !21
  %34 = load i32, ptr getelementptr inbounds ([6 x i32], ptr @deinterleave64.S, i64 0, i64 1), align 4, !tbaa !19
  %35 = zext i32 %34 to i64
  %36 = lshr i64 %33, %35
  %37 = or i64 %32, %36
  %38 = load i64, ptr getelementptr inbounds ([6 x i64], ptr @deinterleave64.B, i64 0, i64 1), align 8, !tbaa !21
  %39 = and i64 %37, %38
  store i64 %39, ptr %4, align 8, !tbaa !21
  %40 = load i64, ptr %3, align 8, !tbaa !21
  %41 = load i64, ptr %3, align 8, !tbaa !21
  %42 = load i32, ptr getelementptr inbounds ([6 x i32], ptr @deinterleave64.S, i64 0, i64 2), align 8, !tbaa !19
  %43 = zext i32 %42 to i64
  %44 = lshr i64 %41, %43
  %45 = or i64 %40, %44
  %46 = load i64, ptr getelementptr inbounds ([6 x i64], ptr @deinterleave64.B, i64 0, i64 2), align 16, !tbaa !21
  %47 = and i64 %45, %46
  store i64 %47, ptr %3, align 8, !tbaa !21
  %48 = load i64, ptr %4, align 8, !tbaa !21
  %49 = load i64, ptr %4, align 8, !tbaa !21
  %50 = load i32, ptr getelementptr inbounds ([6 x i32], ptr @deinterleave64.S, i64 0, i64 2), align 8, !tbaa !19
  %51 = zext i32 %50 to i64
  %52 = lshr i64 %49, %51
  %53 = or i64 %48, %52
  %54 = load i64, ptr getelementptr inbounds ([6 x i64], ptr @deinterleave64.B, i64 0, i64 2), align 16, !tbaa !21
  %55 = and i64 %53, %54
  store i64 %55, ptr %4, align 8, !tbaa !21
  %56 = load i64, ptr %3, align 8, !tbaa !21
  %57 = load i64, ptr %3, align 8, !tbaa !21
  %58 = load i32, ptr getelementptr inbounds ([6 x i32], ptr @deinterleave64.S, i64 0, i64 3), align 4, !tbaa !19
  %59 = zext i32 %58 to i64
  %60 = lshr i64 %57, %59
  %61 = or i64 %56, %60
  %62 = load i64, ptr getelementptr inbounds ([6 x i64], ptr @deinterleave64.B, i64 0, i64 3), align 8, !tbaa !21
  %63 = and i64 %61, %62
  store i64 %63, ptr %3, align 8, !tbaa !21
  %64 = load i64, ptr %4, align 8, !tbaa !21
  %65 = load i64, ptr %4, align 8, !tbaa !21
  %66 = load i32, ptr getelementptr inbounds ([6 x i32], ptr @deinterleave64.S, i64 0, i64 3), align 4, !tbaa !19
  %67 = zext i32 %66 to i64
  %68 = lshr i64 %65, %67
  %69 = or i64 %64, %68
  %70 = load i64, ptr getelementptr inbounds ([6 x i64], ptr @deinterleave64.B, i64 0, i64 3), align 8, !tbaa !21
  %71 = and i64 %69, %70
  store i64 %71, ptr %4, align 8, !tbaa !21
  %72 = load i64, ptr %3, align 8, !tbaa !21
  %73 = load i64, ptr %3, align 8, !tbaa !21
  %74 = load i32, ptr getelementptr inbounds ([6 x i32], ptr @deinterleave64.S, i64 0, i64 4), align 16, !tbaa !19
  %75 = zext i32 %74 to i64
  %76 = lshr i64 %73, %75
  %77 = or i64 %72, %76
  %78 = load i64, ptr getelementptr inbounds ([6 x i64], ptr @deinterleave64.B, i64 0, i64 4), align 16, !tbaa !21
  %79 = and i64 %77, %78
  store i64 %79, ptr %3, align 8, !tbaa !21
  %80 = load i64, ptr %4, align 8, !tbaa !21
  %81 = load i64, ptr %4, align 8, !tbaa !21
  %82 = load i32, ptr getelementptr inbounds ([6 x i32], ptr @deinterleave64.S, i64 0, i64 4), align 16, !tbaa !19
  %83 = zext i32 %82 to i64
  %84 = lshr i64 %81, %83
  %85 = or i64 %80, %84
  %86 = load i64, ptr getelementptr inbounds ([6 x i64], ptr @deinterleave64.B, i64 0, i64 4), align 16, !tbaa !21
  %87 = and i64 %85, %86
  store i64 %87, ptr %4, align 8, !tbaa !21
  %88 = load i64, ptr %3, align 8, !tbaa !21
  %89 = load i64, ptr %3, align 8, !tbaa !21
  %90 = load i32, ptr getelementptr inbounds ([6 x i32], ptr @deinterleave64.S, i64 0, i64 5), align 4, !tbaa !19
  %91 = zext i32 %90 to i64
  %92 = lshr i64 %89, %91
  %93 = or i64 %88, %92
  %94 = load i64, ptr getelementptr inbounds ([6 x i64], ptr @deinterleave64.B, i64 0, i64 5), align 8, !tbaa !21
  %95 = and i64 %93, %94
  store i64 %95, ptr %3, align 8, !tbaa !21
  %96 = load i64, ptr %4, align 8, !tbaa !21
  %97 = load i64, ptr %4, align 8, !tbaa !21
  %98 = load i32, ptr getelementptr inbounds ([6 x i32], ptr @deinterleave64.S, i64 0, i64 5), align 4, !tbaa !19
  %99 = zext i32 %98 to i64
  %100 = lshr i64 %97, %99
  %101 = or i64 %96, %100
  %102 = load i64, ptr getelementptr inbounds ([6 x i64], ptr @deinterleave64.B, i64 0, i64 5), align 8, !tbaa !21
  %103 = and i64 %101, %102
  store i64 %103, ptr %4, align 8, !tbaa !21
  %104 = load i64, ptr %3, align 8, !tbaa !21
  %105 = load i64, ptr %4, align 8, !tbaa !21
  %106 = shl i64 %105, 32
  %107 = or i64 %104, %106
  call void @llvm.lifetime.end.p0(i64 8, ptr %4) #6
  call void @llvm.lifetime.end.p0(i64 8, ptr %3) #6
  ret i64 %107
}

; Function Attrs: nounwind uwtable
define dso_local i32 @geohashDecode(double %0, double %1, double %2, double %3, i64 %4, i8 %5, ptr noundef %6) #0 {
  %8 = alloca i32, align 4
  %9 = alloca %struct.GeoHashRange, align 8
  %10 = alloca %struct.GeoHashRange, align 8
  %11 = alloca %struct.GeoHashBits, align 8
  %12 = alloca ptr, align 8
  %13 = alloca i8, align 1
  %14 = alloca i64, align 8
  %15 = alloca double, align 8
  %16 = alloca double, align 8
  %17 = alloca i32, align 4
  %18 = alloca i32, align 4
  %19 = getelementptr inbounds nuw { double, double }, ptr %9, i32 0, i32 0
  store double %0, ptr %19, align 8
  %20 = getelementptr inbounds nuw { double, double }, ptr %9, i32 0, i32 1
  store double %1, ptr %20, align 8
  %21 = getelementptr inbounds nuw { double, double }, ptr %10, i32 0, i32 0
  store double %2, ptr %21, align 8
  %22 = getelementptr inbounds nuw { double, double }, ptr %10, i32 0, i32 1
  store double %3, ptr %22, align 8
  %23 = getelementptr inbounds nuw { i64, i8 }, ptr %11, i32 0, i32 0
  store i64 %4, ptr %23, align 8
  %24 = getelementptr inbounds nuw { i64, i8 }, ptr %11, i32 0, i32 1
  store i8 %5, ptr %24, align 8
  store ptr %6, ptr %12, align 8, !tbaa !5
  %25 = getelementptr inbounds nuw %struct.GeoHashBits, ptr %11, i32 0, i32 0
  %26 = load i64, ptr %25, align 8, !tbaa !15
  %27 = icmp ne i64 %26, 0
  br i1 %27, label %32, label %28

28:                                               ; preds = %7
  %29 = getelementptr inbounds nuw %struct.GeoHashBits, ptr %11, i32 0, i32 1
  %30 = load i8, ptr %29, align 8, !tbaa !18
  %31 = icmp ne i8 %30, 0
  br i1 %31, label %32, label %51

32:                                               ; preds = %28, %7
  %33 = load ptr, ptr %12, align 8, !tbaa !5
  %34 = icmp eq ptr null, %33
  br i1 %34, label %51, label %35

35:                                               ; preds = %32
  %36 = getelementptr inbounds nuw %struct.GeoHashRange, ptr %10, i32 0, i32 1
  %37 = load double, ptr %36, align 8, !tbaa !9
  %38 = fcmp une double %37, 0.000000e+00
  br i1 %38, label %43, label %39

39:                                               ; preds = %35
  %40 = getelementptr inbounds nuw %struct.GeoHashRange, ptr %10, i32 0, i32 0
  %41 = load double, ptr %40, align 8, !tbaa !12
  %42 = fcmp une double %41, 0.000000e+00
  br i1 %42, label %43, label %51

43:                                               ; preds = %39, %35
  %44 = getelementptr inbounds nuw %struct.GeoHashRange, ptr %9, i32 0, i32 1
  %45 = load double, ptr %44, align 8, !tbaa !9
  %46 = fcmp une double %45, 0.000000e+00
  br i1 %46, label %52, label %47

47:                                               ; preds = %43
  %48 = getelementptr inbounds nuw %struct.GeoHashRange, ptr %9, i32 0, i32 0
  %49 = load double, ptr %48, align 8, !tbaa !12
  %50 = fcmp une double %49, 0.000000e+00
  br i1 %50, label %52, label %51

51:                                               ; preds = %47, %39, %32, %28
  store i32 0, ptr %8, align 4
  br label %141

52:                                               ; preds = %47, %43
  %53 = load ptr, ptr %12, align 8, !tbaa !5
  %54 = getelementptr inbounds nuw %struct.GeoHashArea, ptr %53, i32 0, i32 0
  call void @llvm.memcpy.p0.p0.i64(ptr align 8 %54, ptr align 8 %11, i64 16, i1 false), !tbaa.struct !22
  call void @llvm.lifetime.start.p0(i64 1, ptr %13) #6
  %55 = getelementptr inbounds nuw %struct.GeoHashBits, ptr %11, i32 0, i32 1
  %56 = load i8, ptr %55, align 8, !tbaa !18
  store i8 %56, ptr %13, align 1, !tbaa !14
  call void @llvm.lifetime.start.p0(i64 8, ptr %14) #6
  %57 = getelementptr inbounds nuw %struct.GeoHashBits, ptr %11, i32 0, i32 0
  %58 = load i64, ptr %57, align 8, !tbaa !15
  %59 = call i64 @deinterleave64(i64 noundef %58)
  store i64 %59, ptr %14, align 8, !tbaa !21
  call void @llvm.lifetime.start.p0(i64 8, ptr %15) #6
  %60 = getelementptr inbounds nuw %struct.GeoHashRange, ptr %10, i32 0, i32 1
  %61 = load double, ptr %60, align 8, !tbaa !9
  %62 = getelementptr inbounds nuw %struct.GeoHashRange, ptr %10, i32 0, i32 0
  %63 = load double, ptr %62, align 8, !tbaa !12
  %64 = fsub double %61, %63
  store double %64, ptr %15, align 8, !tbaa !13
  call void @llvm.lifetime.start.p0(i64 8, ptr %16) #6
  %65 = getelementptr inbounds nuw %struct.GeoHashRange, ptr %9, i32 0, i32 1
  %66 = load double, ptr %65, align 8, !tbaa !9
  %67 = getelementptr inbounds nuw %struct.GeoHashRange, ptr %9, i32 0, i32 0
  %68 = load double, ptr %67, align 8, !tbaa !12
  %69 = fsub double %66, %68
  store double %69, ptr %16, align 8, !tbaa !13
  call void @llvm.lifetime.start.p0(i64 4, ptr %17) #6
  %70 = load i64, ptr %14, align 8, !tbaa !21
  %71 = trunc i64 %70 to i32
  store i32 %71, ptr %17, align 4, !tbaa !19
  call void @llvm.lifetime.start.p0(i64 4, ptr %18) #6
  %72 = load i64, ptr %14, align 8, !tbaa !21
  %73 = lshr i64 %72, 32
  %74 = trunc i64 %73 to i32
  store i32 %74, ptr %18, align 4, !tbaa !19
  %75 = getelementptr inbounds nuw %struct.GeoHashRange, ptr %10, i32 0, i32 0
  %76 = load double, ptr %75, align 8, !tbaa !12
  %77 = load i32, ptr %17, align 4, !tbaa !19
  %78 = uitofp i32 %77 to double
  %79 = fmul double %78, 1.000000e+00
  %80 = load i8, ptr %13, align 1, !tbaa !14
  %81 = zext i8 %80 to i32
  %82 = zext i32 %81 to i64
  %83 = shl i64 1, %82
  %84 = uitofp i64 %83 to double
  %85 = fdiv double %79, %84
  %86 = load double, ptr %15, align 8, !tbaa !13
  %87 = call double @llvm.fmuladd.f64(double %85, double %86, double %76)
  %88 = load ptr, ptr %12, align 8, !tbaa !5
  %89 = getelementptr inbounds nuw %struct.GeoHashArea, ptr %88, i32 0, i32 2
  %90 = getelementptr inbounds nuw %struct.GeoHashRange, ptr %89, i32 0, i32 0
  store double %87, ptr %90, align 8, !tbaa !23
  %91 = getelementptr inbounds nuw %struct.GeoHashRange, ptr %10, i32 0, i32 0
  %92 = load double, ptr %91, align 8, !tbaa !12
  %93 = load i32, ptr %17, align 4, !tbaa !19
  %94 = add i32 %93, 1
  %95 = uitofp i32 %94 to double
  %96 = fmul double %95, 1.000000e+00
  %97 = load i8, ptr %13, align 1, !tbaa !14
  %98 = zext i8 %97 to i32
  %99 = zext i32 %98 to i64
  %100 = shl i64 1, %99
  %101 = uitofp i64 %100 to double
  %102 = fdiv double %96, %101
  %103 = load double, ptr %15, align 8, !tbaa !13
  %104 = call double @llvm.fmuladd.f64(double %102, double %103, double %92)
  %105 = load ptr, ptr %12, align 8, !tbaa !5
  %106 = getelementptr inbounds nuw %struct.GeoHashArea, ptr %105, i32 0, i32 2
  %107 = getelementptr inbounds nuw %struct.GeoHashRange, ptr %106, i32 0, i32 1
  store double %104, ptr %107, align 8, !tbaa !25
  %108 = getelementptr inbounds nuw %struct.GeoHashRange, ptr %9, i32 0, i32 0
  %109 = load double, ptr %108, align 8, !tbaa !12
  %110 = load i32, ptr %18, align 4, !tbaa !19
  %111 = uitofp i32 %110 to double
  %112 = fmul double %111, 1.000000e+00
  %113 = load i8, ptr %13, align 1, !tbaa !14
  %114 = zext i8 %113 to i32
  %115 = zext i32 %114 to i64
  %116 = shl i64 1, %115
  %117 = uitofp i64 %116 to double
  %118 = fdiv double %112, %117
  %119 = load double, ptr %16, align 8, !tbaa !13
  %120 = call double @llvm.fmuladd.f64(double %118, double %119, double %109)
  %121 = load ptr, ptr %12, align 8, !tbaa !5
  %122 = getelementptr inbounds nuw %struct.GeoHashArea, ptr %121, i32 0, i32 1
  %123 = getelementptr inbounds nuw %struct.GeoHashRange, ptr %122, i32 0, i32 0
  store double %120, ptr %123, align 8, !tbaa !26
  %124 = getelementptr inbounds nuw %struct.GeoHashRange, ptr %9, i32 0, i32 0
  %125 = load double, ptr %124, align 8, !tbaa !12
  %126 = load i32, ptr %18, align 4, !tbaa !19
  %127 = add i32 %126, 1
  %128 = uitofp i32 %127 to double
  %129 = fmul double %128, 1.000000e+00
  %130 = load i8, ptr %13, align 1, !tbaa !14
  %131 = zext i8 %130 to i32
  %132 = zext i32 %131 to i64
  %133 = shl i64 1, %132
  %134 = uitofp i64 %133 to double
  %135 = fdiv double %129, %134
  %136 = load double, ptr %16, align 8, !tbaa !13
  %137 = call double @llvm.fmuladd.f64(double %135, double %136, double %125)
  %138 = load ptr, ptr %12, align 8, !tbaa !5
  %139 = getelementptr inbounds nuw %struct.GeoHashArea, ptr %138, i32 0, i32 1
  %140 = getelementptr inbounds nuw %struct.GeoHashRange, ptr %139, i32 0, i32 1
  store double %137, ptr %140, align 8, !tbaa !27
  store i32 1, ptr %8, align 4
  call void @llvm.lifetime.end.p0(i64 4, ptr %18) #6
  call void @llvm.lifetime.end.p0(i64 4, ptr %17) #6
  call void @llvm.lifetime.end.p0(i64 8, ptr %16) #6
  call void @llvm.lifetime.end.p0(i64 8, ptr %15) #6
  call void @llvm.lifetime.end.p0(i64 8, ptr %14) #6
  call void @llvm.lifetime.end.p0(i64 1, ptr %13) #6
  br label %141

141:                                              ; preds = %52, %51
  %142 = load i32, ptr %8, align 4
  ret i32 %142
}