; Function Attrs: mustprogress nofree norecurse nosync nounwind willreturn memory(argmem: write) uwtable
define dso_local range(i32 0, 2) i32 @geohashDecode(double %0, double %1, double %2, double %3, i64 %4, i8 %5, ptr noundef writeonly captures(address_is_null) %6) local_unnamed_addr #0 {
  %8 = icmp eq i64 %4, 0
  %9 = icmp eq i8 %5, 0
  %or.cond.not45 = select i1 %8, i1 %9, i1 false
  %10 = icmp eq ptr %6, null
  %or.cond4 = or i1 %or.cond.not45, %10
  br i1 %or.cond4, label %74, label %11

11:                                               ; preds = %7
  %12 = fcmp une double %3, 0.000000e+00
  %13 = fcmp une double %2, 0.000000e+00
  %or.cond7 = select i1 %12, i1 true, i1 %13
  br i1 %or.cond7, label %14, label %74

14:                                               ; preds = %11
  %15 = fcmp une double %1, 0.000000e+00
  %16 = fcmp une double %0, 0.000000e+00
  %or.cond10 = select i1 %15, i1 true, i1 %16
  br i1 %or.cond10, label %17, label %74

17:                                               ; preds = %14
  store i64 %4, ptr %6, align 8, !tbaa !15
  %.sroa.4.0..sroa_idx = getelementptr inbounds nuw i8, ptr %6, i64 8
  store i8 %5, ptr %.sroa.4.0..sroa_idx, align 8, !tbaa !16
  %18 = lshr i64 %4, 1
  %19 = and i64 %4, 6148914691236517205
  %20 = and i64 %18, 4919131752989213764
  %21 = lshr i64 %19, 1
  %22 = or disjoint i64 %21, %19
  %23 = and i64 %22, 3689348814741910323
  %24 = and i64 %4, 2459565876494606882
  %25 = or disjoint i64 %20, %24
  %26 = lshr exact i64 %25, 1
  %27 = lshr i64 %23, 2
  %28 = or disjoint i64 %27, %23
  %29 = and i64 %28, 1085102592571150095
  %30 = lshr i64 %25, 3
  %31 = or disjoint i64 %26, %30
  %32 = and i64 %31, 1085102592571150095
  %33 = lshr i64 %29, 4
  %34 = or disjoint i64 %33, %29
  %35 = and i64 %34, 71777214294589695
  %36 = lshr i64 %32, 4
  %37 = or disjoint i64 %36, %32
  %38 = and i64 %37, 71777214294589695
  %39 = lshr i64 %35, 8
  %40 = or disjoint i64 %39, %35
  %41 = lshr i64 %38, 8
  %42 = or disjoint i64 %41, %38
  %43 = lshr i64 %40, 16
  %44 = and i64 %43, 4294901760
  %.masked.i = and i64 %40, 65535
  %45 = or disjoint i64 %44, %.masked.i
  %46 = lshr i64 %42, 16
  %47 = and i64 %46, 4294901760
  %.masked28.i = and i64 %42, 65535
  %48 = or disjoint i64 %47, %.masked28.i
  %49 = fsub double %3, %2
  %50 = fsub double %1, %0
  %51 = trunc nuw i64 %45 to i32
  %52 = trunc nuw i64 %48 to i32
  %53 = uitofp i32 %51 to double
  %54 = zext nneg i8 %5 to i64
  %55 = shl nuw i64 1, %54
  %56 = uitofp i64 %55 to double
  %57 = fdiv double %53, %56
  %58 = tail call double @llvm.fmuladd.f64(double %57, double %49, double %2)
  %59 = getelementptr inbounds nuw i8, ptr %6, i64 32
  store double %58, ptr %59, align 8, !tbaa !17
  %60 = add i32 %51, 1
  %61 = uitofp i32 %60 to double
  %62 = fdiv double %61, %56
  %63 = tail call double @llvm.fmuladd.f64(double %62, double %49, double %2)
  %64 = getelementptr inbounds nuw i8, ptr %6, i64 40
  store double %63, ptr %64, align 8, !tbaa !19
  %65 = uitofp i32 %52 to double
  %66 = fdiv double %65, %56
  %67 = tail call double @llvm.fmuladd.f64(double %66, double %50, double %0)
  %68 = getelementptr inbounds nuw i8, ptr %6, i64 16
  store double %67, ptr %68, align 8, !tbaa !20
  %69 = add i32 %52, 1
  %70 = uitofp i32 %69 to double
  %71 = fdiv double %70, %56
  %72 = tail call double @llvm.fmuladd.f64(double %71, double %50, double %0)
  %73 = getelementptr inbounds nuw i8, ptr %6, i64 24
  store double %72, ptr %73, align 8, !tbaa !21
  br label %74

74:                                               ; preds = %7, %11, %14, %17
  %.0 = phi i32 [ 1, %17 ], [ 0, %14 ], [ 0, %11 ], [ 0, %7 ]
  ret i32 %.0
}